; ModuleID = '215.c'
source_filename = "215.c"
target datalayout = "e-m:e-p270:32:32-p271:32:32-p272:64:64-i64:64-f80:128-n8:16:32:64-S128"
target triple = "x86_64-pc-linux-gnu"

@.str = private unnamed_addr constant [3 x i8] c"%d\00", align 1
@.str.1 = private unnamed_addr constant [3 x i8] c"%s\00", align 1
@.str.2 = private unnamed_addr constant [4 x i8] c"%s\0A\00", align 1

; Function Attrs: noinline nounwind uwtable
define dso_local i32 @main(i32 %0, i8** %1) #0 {
  %3 = alloca i32, align 4
  %4 = alloca i32, align 4
  %5 = alloca i8**, align 8
  %6 = alloca i32, align 4
  %7 = alloca [30 x i8], align 16
  %8 = alloca i32, align 4
  store i32 0, i32* %3, align 4
  store i32 %0, i32* %4, align 4
  store i8** %1, i8*** %5, align 8
  %9 = call i32 (i8*, ...) @__isoc99_scanf(i8* getelementptr inbounds ([3 x i8], [3 x i8]* @.str, i64 0, i64 0), i32* %6)
  br label %10

10:                                               ; preds = %36, %2
  %11 = load i32, i32* %6, align 4
  %12 = add nsw i32 %11, -1
  store i32 %12, i32* %6, align 4
  %13 = icmp sgt i32 %11, 0
  br i1 %13, label %14, label %39

14:                                               ; preds = %10
  %15 = getelementptr inbounds [30 x i8], [30 x i8]* %7, i64 0, i64 0
  %16 = call i32 (i8*, ...) @__isoc99_scanf(i8* getelementptr inbounds ([3 x i8], [3 x i8]* @.str.1, i64 0, i64 0), i8* %15)
  %17 = getelementptr inbounds [30 x i8], [30 x i8]* %7, i64 0, i64 0
  %18 = call i64 @strlen(i8* %17) #3
  %19 = trunc i64 %18 to i32
  store i32 %19, i32* %8, align 4
  %20 = load i32, i32* %8, align 4
  %21 = sub nsw i32 %20, 1
  %22 = sext i32 %21 to i64
  %23 = getelementptr inbounds [30 x i8], [30 x i8]* %7, i64 0, i64 %22
  %24 = load i8, i8* %23, align 1
  %25 = sext i8 %24 to i32
  switch i32 %25, label %36 [
    i32 114, label %26
    i32 121, label %26
    i32 103, label %31
  ]

26:                                               ; preds = %14, %14
  %27 = load i32, i32* %8, align 4
  %28 = sub nsw i32 %27, 2
  %29 = sext i32 %28 to i64
  %30 = getelementptr inbounds [30 x i8], [30 x i8]* %7, i64 0, i64 %29
  store i8 0, i8* %30, align 1
  br label %36

31:                                               ; preds = %14
  %32 = load i32, i32* %8, align 4
  %33 = sub nsw i32 %32, 3
  %34 = sext i32 %33 to i64
  %35 = getelementptr inbounds [30 x i8], [30 x i8]* %7, i64 0, i64 %34
  store i8 0, i8* %35, align 1
  br label %36

36:                                               ; preds = %14, %31, %26
  %37 = getelementptr inbounds [30 x i8], [30 x i8]* %7, i64 0, i64 0
  %38 = call i32 (i8*, ...) @printf(i8* getelementptr inbounds ([4 x i8], [4 x i8]* @.str.2, i64 0, i64 0), i8* %37)
  br label %10

39:                                               ; preds = %10
  ret i32 0
}

declare dso_local i32 @__isoc99_scanf(i8*, ...) #1

; Function Attrs: nounwind readonly
declare dso_local i64 @strlen(i8*) #2

declare dso_local i32 @printf(i8*, ...) #1


!llvm.module.flags = !{!0}
!llvm.ident = !{!1}

!0 = !{i32 1, !"wchar_size", i32 4}
!1 = !{!"clang version 10.0.0-4ubuntu1 "}
